target datalayout = "e-m:e-p270:32:32-p271:32:32-p272:64:64-i64:64-i128:128-f80:128-n8:16:32:64-S128"
target triple = "x86_64-pc-linux-gnu"

@the_repository = external global ptr, align 8

; Function Attrs: nounwind uwtable
define internal void @handle_ref_opt(ptr noundef %0, ptr noundef %1) #0 {
  %3 = alloca ptr, align 8
  %4 = alloca ptr, align 8
  store ptr %0, ptr %3, align 8, !tbaa !11
  store ptr %1, ptr %4, align 8, !tbaa !11
  %5 = load ptr, ptr %3, align 8, !tbaa !11
  %6 = icmp ne ptr %5, null
  br i1 %6, label %7, label %13

7:                                                ; preds = %2
  %8 = load ptr, ptr @the_repository, align 8, !tbaa !13
  %9 = call ptr @get_main_ref_store(ptr noundef %8)
  %10 = load ptr, ptr %3, align 8, !tbaa !11
  %11 = load ptr, ptr %4, align 8, !tbaa !11
  %12 = call i32 @refs_for_each_glob_ref_in(ptr noundef %9, ptr noundef @show_reference, ptr noundef %10, ptr noundef %11, ptr noundef null)
  br label %18

13:                                               ; preds = %2
  %14 = load ptr, ptr @the_repository, align 8, !tbaa !13
  %15 = call ptr @get_main_ref_store(ptr noundef %14)
  %16 = load ptr, ptr %4, align 8, !tbaa !11
  %17 = call i32 @refs_for_each_ref_in(ptr noundef %15, ptr noundef %16, ptr noundef @show_reference, ptr noundef null)
  br label %18

18:                                               ; preds = %13, %7
  call void @clear_ref_exclusions(ptr noundef @ref_excludes)
  ret void
}