; Function Attrs: nounwind uwtable
define internal fastcc void @handle_ref_opt(ptr noundef %0, ptr noundef %1) unnamed_addr #0 {
  %.not = icmp eq ptr %0, null
  %3 = load ptr, ptr @the_repository, align 8, !tbaa !39
  %4 = tail call ptr @get_main_ref_store(ptr noundef %3) #19
  br i1 %.not, label %7, label %5

5:                                                ; preds = %2
  %6 = tail call i32 @refs_for_each_glob_ref_in(ptr noundef %4, ptr noundef nonnull @show_reference, ptr noundef nonnull %0, ptr noundef %1, ptr noundef null) #19
  br label %9

7:                                                ; preds = %2
  %8 = tail call i32 @refs_for_each_ref_in(ptr noundef %4, ptr noundef %1, ptr noundef nonnull @show_reference, ptr noundef null) #19
  br label %9

9:                                                ; preds = %7, %5
  tail call void @clear_ref_exclusions(ptr noundef nonnull @ref_excludes) #19
  ret void
}